; ModuleID = '42/1245.c'
source_filename = "42/1245.c"
target datalayout = "e-m:e-p270:32:32-p271:32:32-p272:64:64-i64:64-f80:128-n8:16:32:64-S128"
target triple = "x86_64-pc-linux-gnu"

@.str = private unnamed_addr constant [3 x i8] c"%d\00", align 1
@a = common dso_local global [1000001 x i32] zeroinitializer, align 16
@.str.1 = private unnamed_addr constant [4 x i8] c" %d\00", align 1

; Function Attrs: noinline nounwind uwtable
define dso_local i32 @main() #0 {
  %1 = alloca i32, align 4
  %2 = alloca i32, align 4
  %3 = alloca i32, align 4
  %4 = alloca i32, align 4
  %5 = alloca i32, align 4
  store i32 0, i32* %1, align 4
  %6 = call i32 (i8*, ...) @__isoc99_scanf(i8* getelementptr inbounds ([3 x i8], [3 x i8]* @.str, i64 0, i64 0), i32* %2)
  store i32 0, i32* %4, align 4
  br label %7

7:                                                ; preds = %16, %0
  %8 = load i32, i32* %4, align 4
  %9 = load i32, i32* %2, align 4
  %10 = icmp slt i32 %8, %9
  br i1 %10, label %11, label %19

11:                                               ; preds = %7
  %12 = load i32, i32* %4, align 4
  %13 = sext i32 %12 to i64
  %14 = getelementptr inbounds [1000001 x i32], [1000001 x i32]* @a, i64 0, i64 %13
  %15 = call i32 (i8*, ...) @__isoc99_scanf(i8* getelementptr inbounds ([3 x i8], [3 x i8]* @.str, i64 0, i64 0), i32* %14)
  br label %16

16:                                               ; preds = %11
  %17 = load i32, i32* %4, align 4
  %18 = add nsw i32 %17, 1
  store i32 %18, i32* %4, align 4
  br label %7

19:                                               ; preds = %7
  %20 = call i32 (i8*, ...) @__isoc99_scanf(i8* getelementptr inbounds ([3 x i8], [3 x i8]* @.str, i64 0, i64 0), i32* %3)
  store i32 0, i32* %4, align 4
  br label %21

21:                                               ; preds = %39, %19
  %22 = load i32, i32* %4, align 4
  %23 = load i32, i32* %2, align 4
  %24 = icmp slt i32 %22, %23
  br i1 %24, label %25, label %42

25:                                               ; preds = %21
  %26 = load i32, i32* %4, align 4
  %27 = sext i32 %26 to i64
  %28 = getelementptr inbounds [1000001 x i32], [1000001 x i32]* @a, i64 0, i64 %27
  %29 = load i32, i32* %28, align 4
  %30 = load i32, i32* %3, align 4
  %31 = icmp ne i32 %29, %30
  br i1 %31, label %32, label %38

32:                                               ; preds = %25
  %33 = load i32, i32* %4, align 4
  %34 = sext i32 %33 to i64
  %35 = getelementptr inbounds [1000001 x i32], [1000001 x i32]* @a, i64 0, i64 %34
  %36 = load i32, i32* %35, align 4
  %37 = call i32 (i8*, ...) @printf(i8* getelementptr inbounds ([3 x i8], [3 x i8]* @.str, i64 0, i64 0), i32 %36)
  br label %42

38:                                               ; preds = %25
  br label %39

39:                                               ; preds = %38
  %40 = load i32, i32* %4, align 4
  %41 = add nsw i32 %40, 1
  store i32 %41, i32* %4, align 4
  br label %21

42:                                               ; preds = %32, %21
  %43 = load i32, i32* %4, align 4
  %44 = add nsw i32 %43, 1
  store i32 %44, i32* %5, align 4
  br label %45

45:                                               ; preds = %80, %42
  %46 = load i32, i32* %5, align 4
  %47 = load i32, i32* %2, align 4
  %48 = icmp slt i32 %46, %47
  br i1 %48, label %49, label %83

49:                                               ; preds = %45
  br label %50

50:                                               ; preds = %63, %49
  %51 = load i32, i32* %5, align 4
  %52 = sext i32 %51 to i64
  %53 = getelementptr inbounds [1000001 x i32], [1000001 x i32]* @a, i64 0, i64 %52
  %54 = load i32, i32* %53, align 4
  %55 = load i32, i32* %3, align 4
  %56 = icmp ne i32 %54, %55
  br i1 %56, label %57, label %61

57:                                               ; preds = %50
  %58 = load i32, i32* %5, align 4
  %59 = load i32, i32* %2, align 4
  %60 = icmp slt i32 %58, %59
  br label %61

61:                                               ; preds = %57, %50
  %62 = phi i1 [ false, %50 ], [ %60, %57 ]
  br i1 %62, label %63, label %71

63:                                               ; preds = %61
  %64 = load i32, i32* %5, align 4
  %65 = sext i32 %64 to i64
  %66 = getelementptr inbounds [1000001 x i32], [1000001 x i32]* @a, i64 0, i64 %65
  %67 = load i32, i32* %66, align 4
  %68 = call i32 (i8*, ...) @printf(i8* getelementptr inbounds ([4 x i8], [4 x i8]* @.str.1, i64 0, i64 0), i32 %67)
  %69 = load i32, i32* %5, align 4
  %70 = add nsw i32 %69, 1
  store i32 %70, i32* %5, align 4
  br label %50

71:                                               ; preds = %61
  %72 = load i32, i32* %5, align 4
  %73 = sext i32 %72 to i64
  %74 = getelementptr inbounds [1000001 x i32], [1000001 x i32]* @a, i64 0, i64 %73
  %75 = load i32, i32* %74, align 4
  %76 = load i32, i32* %3, align 4
  %77 = icmp eq i32 %75, %76
  br i1 %77, label %78, label %79

78:                                               ; preds = %71
  br label %80

79:                                               ; preds = %71
  br label %80

80:                                               ; preds = %79, %78
  %81 = load i32, i32* %5, align 4
  %82 = add nsw i32 %81, 1
  store i32 %82, i32* %5, align 4
  br label %45

83:                                               ; preds = %45
  ret i32 0
}

declare dso_local i32 @__isoc99_scanf(i8*, ...) #1

declare dso_local i32 @printf(i8*, ...) #1


!llvm.module.flags = !{!0}
!llvm.ident = !{!1}

!0 = !{i32 1, !"wchar_size", i32 4}
!1 = !{!"clang version 10.0.0-4ubuntu1 "}
